target datalayout = "e-m:e-p270:32:32-p271:32:32-p272:64:64-i64:64-i128:128-f80:128-n8:16:32:64-S128"
target triple = "x86_64-pc-linux-gnu"

%class.VerificationType = type { %union.anon }
%union.anon = type { ptr }
%class.StackMapFrame = type { i32, i32, i32, i32, i16, i16, i8, ptr, ptr, ptr }
%class.ClassVerifier = type { ptr, ptr, ptr, ptr, ptr, %class.ResourceHashtable, %class.ErrorContext, ptr, %class.methodHandle, %class.VerificationType }
%class.ResourceHashtable = type { %class.ResourceHashtableBase.base, [4 x i8] }
%class.ResourceHashtableBase.base = type <{ %class.FixedResourceHashtableStorage, i32 }>
%class.FixedResourceHashtableStorage = type { [1007 x ptr] }
%class.ErrorContext = type { i32, i32, %class.TypeOrigin, %class.TypeOrigin }
%class.TypeOrigin = type { i32, i32, ptr, %class.VerificationType }
%class.methodHandle = type { ptr, ptr }

; Function Attrs: mustprogress nounwind uwtable
define linkonce_odr hidden void @_ZN16VerificationTypeC2Em(ptr noundef nonnull align 8 dereferenceable(8) %0, i64 noundef %1) unnamed_addr #1 comdat align 2 {
  %3 = alloca ptr, align 8
  %4 = alloca i64, align 8
  store ptr %0, ptr %3, align 8
  store i64 %1, ptr %4, align 8
  %5 = load ptr, ptr %3, align 8
  %6 = load i64, ptr %4, align 8
  %7 = getelementptr inbounds %class.VerificationType, ptr %5, i32 0, i32 0
  store i64 %6, ptr %7, align 8
  ret void
}

; Function Attrs: mustprogress nounwind uwtable
define linkonce_odr hidden ptr @_ZN16VerificationType10bogus_typeEv() #1 comdat align 2 {
  %1 = alloca %class.VerificationType, align 8
  call void @_ZN16VerificationTypeC2Em(ptr noundef nonnull align 8 dereferenceable(8) %1, i64 noundef 4294901761)
  %2 = getelementptr inbounds %class.VerificationType, ptr %1, i32 0, i32 0
  %3 = getelementptr inbounds %union.anon, ptr %2, i32 0, i32 0
  %4 = load ptr, ptr %3, align 8
  ret ptr %4
}

; Function Attrs: mustprogress nounwind uwtable
define linkonce_odr hidden noundef ptr @_ZN13ClassVerifier6threadEv(ptr noundef nonnull align 8 dereferenceable(8192) %0) #1 comdat align 2 {
  %2 = alloca ptr, align 8
  store ptr %0, ptr %2, align 8
  %3 = load ptr, ptr %2, align 8
  %4 = getelementptr inbounds %class.ClassVerifier, ptr %3, i32 0, i32 0
  %5 = load ptr, ptr %4, align 8
  ret ptr %5
}

; Function Attrs: mustprogress nounwind uwtable
define hidden void @_ZN13StackMapFrameC2EttP13ClassVerifier(ptr noundef nonnull align 8 dereferenceable(48) %0, i16 noundef zeroext %1, i16 noundef zeroext %2, ptr noundef %3) unnamed_addr #1 align 2 {
  %5 = alloca ptr, align 8
  %6 = alloca i16, align 2
  %7 = alloca i16, align 2
  %8 = alloca ptr, align 8
  %9 = alloca ptr, align 8
  %10 = alloca i32, align 4
  %11 = alloca %class.VerificationType, align 8
  %12 = alloca %class.VerificationType, align 8
  store ptr %0, ptr %5, align 8
  store i16 %1, ptr %6, align 2
  store i16 %2, ptr %7, align 2
  store ptr %3, ptr %8, align 8
  %13 = load ptr, ptr %5, align 8
  %14 = getelementptr inbounds %class.StackMapFrame, ptr %13, i32 0, i32 0
  store i32 0, ptr %14, align 8
  %15 = getelementptr inbounds %class.StackMapFrame, ptr %13, i32 0, i32 1
  store i32 0, ptr %15, align 4
  %16 = getelementptr inbounds %class.StackMapFrame, ptr %13, i32 0, i32 2
  store i32 0, ptr %16, align 8
  %17 = getelementptr inbounds %class.StackMapFrame, ptr %13, i32 0, i32 3
  store i32 0, ptr %17, align 4
  %18 = getelementptr inbounds %class.StackMapFrame, ptr %13, i32 0, i32 4
  %19 = load i16, ptr %6, align 2
  store i16 %19, ptr %18, align 8
  %20 = getelementptr inbounds %class.StackMapFrame, ptr %13, i32 0, i32 5
  %21 = load i16, ptr %7, align 2
  store i16 %21, ptr %20, align 2
  %22 = getelementptr inbounds %class.StackMapFrame, ptr %13, i32 0, i32 6
  store i8 0, ptr %22, align 4
  %23 = getelementptr inbounds %class.StackMapFrame, ptr %13, i32 0, i32 9
  %24 = load ptr, ptr %8, align 8
  store ptr %24, ptr %23, align 8
  %25 = load ptr, ptr %8, align 8
  %26 = call noundef ptr @_ZN13ClassVerifier6threadEv(ptr noundef nonnull align 8 dereferenceable(8192) %25)
  store ptr %26, ptr %9, align 8
  %27 = load ptr, ptr %9, align 8
  %28 = load i16, ptr %6, align 2
  %29 = zext i16 %28 to i64
  %30 = mul i64 %29, 8
  %31 = call noundef ptr @_Z23resource_allocate_bytesP6ThreadmN17AllocFailStrategy13AllocFailEnumE(ptr noundef %27, i64 noundef %30, i32 noundef 0)
  %32 = getelementptr inbounds %class.StackMapFrame, ptr %13, i32 0, i32 7
  store ptr %31, ptr %32, align 8
  %33 = load ptr, ptr %9, align 8
  %34 = load i16, ptr %7, align 2
  %35 = zext i16 %34 to i64
  %36 = mul i64 %35, 8
  %37 = call noundef ptr @_Z23resource_allocate_bytesP6ThreadmN17AllocFailStrategy13AllocFailEnumE(ptr noundef %33, i64 noundef %36, i32 noundef 0)
  %38 = getelementptr inbounds %class.StackMapFrame, ptr %13, i32 0, i32 8
  store ptr %37, ptr %38, align 8
  store i32 0, ptr %10, align 4
  br label %39

39:                                               ; preds = %53, %4
  %40 = load i32, ptr %10, align 4
  %41 = load i16, ptr %6, align 2
  %42 = zext i16 %41 to i32
  %43 = icmp slt i32 %40, %42
  br i1 %43, label %44, label %56

44:                                               ; preds = %39
  %45 = call ptr @_ZN16VerificationType10bogus_typeEv()
  %46 = getelementptr inbounds %class.VerificationType, ptr %11, i32 0, i32 0
  %47 = getelementptr inbounds %union.anon, ptr %46, i32 0, i32 0
  store ptr %45, ptr %47, align 8
  %48 = getelementptr inbounds %class.StackMapFrame, ptr %13, i32 0, i32 7
  %49 = load ptr, ptr %48, align 8
  %50 = load i32, ptr %10, align 4
  %51 = sext i32 %50 to i64
  %52 = getelementptr inbounds %class.VerificationType, ptr %49, i64 %51
  call void @llvm.memcpy.p0.p0.i64(ptr align 8 %52, ptr align 8 %11, i64 8, i1 false)
  br label %53

53:                                               ; preds = %44
  %54 = load i32, ptr %10, align 4
  %55 = add nsw i32 %54, 1
  store i32 %55, ptr %10, align 4
  br label %39, !llvm.loop !6

56:                                               ; preds = %39
  store i32 0, ptr %10, align 4
  br label %57

57:                                               ; preds = %71, %56
  %58 = load i32, ptr %10, align 4
  %59 = load i16, ptr %7, align 2
  %60 = zext i16 %59 to i32
  %61 = icmp slt i32 %58, %60
  br i1 %61, label %62, label %74

62:                                               ; preds = %57
  %63 = call ptr @_ZN16VerificationType10bogus_typeEv()
  %64 = getelementptr inbounds %class.VerificationType, ptr %12, i32 0, i32 0
  %65 = getelementptr inbounds %union.anon, ptr %64, i32 0, i32 0
  store ptr %63, ptr %65, align 8
  %66 = getelementptr inbounds %class.StackMapFrame, ptr %13, i32 0, i32 8
  %67 = load ptr, ptr %66, align 8
  %68 = load i32, ptr %10, align 4
  %69 = sext i32 %68 to i64
  %70 = getelementptr inbounds %class.VerificationType, ptr %67, i64 %69
  call void @llvm.memcpy.p0.p0.i64(ptr align 8 %70, ptr align 8 %12, i64 8, i1 false)
  br label %71

71:                                               ; preds = %62
  %72 = load i32, ptr %10, align 4
  %73 = add nsw i32 %72, 1
  store i32 %73, ptr %10, align 4
  br label %57, !llvm.loop !8

74:                                               ; preds = %57
  ret void
}