; Function Attrs: mustprogress nounwind uwtable
define hidden void @_ZN13StackMapFrameC2EttP13ClassVerifier(ptr nocapture noundef nonnull align 8 dereferenceable(48) %0, i16 noundef zeroext %1, i16 noundef zeroext %2, ptr noundef %3) unnamed_addr #0 align 2 {
  %5 = getelementptr inbounds i8, ptr %0, i64 16
  tail call void @llvm.memset.p0.i64(ptr noundef nonnull align 8 dereferenceable(16) %0, i8 0, i64 16, i1 false)
  store i16 %1, ptr %5, align 8
  %6 = getelementptr inbounds i8, ptr %0, i64 18
  store i16 %2, ptr %6, align 2
  %7 = getelementptr inbounds i8, ptr %0, i64 20
  store i8 0, ptr %7, align 4
  %8 = getelementptr inbounds i8, ptr %0, i64 40
  store ptr %3, ptr %8, align 8
  %9 = load ptr, ptr %3, align 8
  %10 = zext i16 %1 to i64
  %11 = shl nuw nsw i64 %10, 3
  %12 = tail call noundef ptr @_Z23resource_allocate_bytesP6ThreadmN17AllocFailStrategy13AllocFailEnumE(ptr noundef %9, i64 noundef %11, i32 noundef 0) #12
  %13 = getelementptr inbounds i8, ptr %0, i64 24
  store ptr %12, ptr %13, align 8
  %14 = zext i16 %2 to i64
  %15 = shl nuw nsw i64 %14, 3
  %16 = tail call noundef ptr @_Z23resource_allocate_bytesP6ThreadmN17AllocFailStrategy13AllocFailEnumE(ptr noundef %9, i64 noundef %15, i32 noundef 0) #12
  %17 = getelementptr inbounds i8, ptr %0, i64 32
  store ptr %16, ptr %17, align 8
  %.not = icmp eq i16 %1, 0
  br i1 %.not, label %.preheader, label %.lr.ph.preheader

.lr.ph.preheader:                                 ; preds = %4
  %wide.trip.count = zext i16 %1 to i64
  br label %.lr.ph

.preheader:                                       ; preds = %.lr.ph, %4
  %.not20 = icmp eq i16 %2, 0
  br i1 %.not20, label %._crit_edge, label %.lr.ph19.preheader

.lr.ph19.preheader:                               ; preds = %.preheader
  %wide.trip.count25 = zext i16 %2 to i64
  br label %.lr.ph19

.lr.ph:                                           ; preds = %.lr.ph.preheader, %.lr.ph
  %indvars.iv = phi i64 [ 0, %.lr.ph.preheader ], [ %indvars.iv.next, %.lr.ph ]
  %18 = load ptr, ptr %13, align 8
  %19 = getelementptr inbounds %class.VerificationType, ptr %18, i64 %indvars.iv
  store ptr inttoptr (i64 4294901761 to ptr), ptr %19, align 8
  %indvars.iv.next = add nuw nsw i64 %indvars.iv, 1
  %exitcond.not = icmp eq i64 %indvars.iv.next, %wide.trip.count
  br i1 %exitcond.not, label %.preheader, label %.lr.ph, !llvm.loop !6

.lr.ph19:                                         ; preds = %.lr.ph19.preheader, %.lr.ph19
  %indvars.iv22 = phi i64 [ 0, %.lr.ph19.preheader ], [ %indvars.iv.next23, %.lr.ph19 ]
  %20 = load ptr, ptr %17, align 8
  %21 = getelementptr inbounds %class.VerificationType, ptr %20, i64 %indvars.iv22
  store ptr inttoptr (i64 4294901761 to ptr), ptr %21, align 8
  %indvars.iv.next23 = add nuw nsw i64 %indvars.iv22, 1
  %exitcond26.not = icmp eq i64 %indvars.iv.next23, %wide.trip.count25
  br i1 %exitcond26.not, label %._crit_edge, label %.lr.ph19, !llvm.loop !8

._crit_edge:                                      ; preds = %.lr.ph19, %.preheader
  ret void
}